target datalayout = "e-m:e-p270:32:32-p271:32:32-p272:64:64-i64:64-i128:128-f80:128-n8:16:32:64-S128"
target triple = "x86_64-pc-linux-gnu"

%struct.pmix_compress_base_module_1_0_0_t = type { ptr, ptr, ptr, ptr, ptr, ptr, ptr, ptr }

@pmix_compress = external global %struct.pmix_compress_base_module_1_0_0_t, align 8

; Function Attrs: nounwind uwtable
define zeroext i1 @PMIx_Data_decompress(ptr noundef %0, i64 noundef %1, ptr noundef %2, ptr noundef %3) #0 {
  %5 = alloca i1, align 1
  %6 = alloca ptr, align 8
  %7 = alloca i64, align 8
  %8 = alloca ptr, align 8
  %9 = alloca ptr, align 8
  store ptr %0, ptr %6, align 8, !tbaa !117
  store i64 %1, ptr %7, align 8, !tbaa !125
  store ptr %2, ptr %8, align 8, !tbaa !116
  store ptr %3, ptr %9, align 8, !tbaa !126
  %10 = load ptr, ptr %6, align 8, !tbaa !117
  %11 = icmp eq ptr null, %10
  br i1 %11, label %12, label %13

12:                                               ; preds = %4
  store i1 true, ptr %5, align 1
  br label %20

13:                                               ; preds = %4
  %14 = load ptr, ptr getelementptr inbounds nuw (%struct.pmix_compress_base_module_1_0_0_t, ptr @pmix_compress, i32 0, i32 3), align 8, !tbaa !129
  %15 = load ptr, ptr %8, align 8, !tbaa !116
  %16 = load ptr, ptr %9, align 8, !tbaa !126
  %17 = load ptr, ptr %6, align 8, !tbaa !117
  %18 = load i64, ptr %7, align 8, !tbaa !125
  %19 = call zeroext i1 %14(ptr noundef %15, ptr noundef %16, ptr noundef %17, i64 noundef %18)
  store i1 %19, ptr %5, align 1
  br label %20

20:                                               ; preds = %13, %12
  %21 = load i1, ptr %5, align 1
  ret i1 %21
}