; Function Attrs: nounwind uwtable
define zeroext i1 @PMIx_Data_decompress(ptr noundef %0, i64 noundef %1, ptr noundef %2, ptr noundef %3) local_unnamed_addr #0 {
  %5 = icmp eq ptr %0, null
  br i1 %5, label %9, label %6

6:                                                ; preds = %4
  %7 = load ptr, ptr getelementptr inbounds nuw (i8, ptr @pmix_compress, i64 24), align 8, !tbaa !109
  %8 = tail call zeroext i1 %7(ptr noundef %2, ptr noundef %3, ptr noundef nonnull %0, i64 noundef %1) #13
  br label %9

9:                                                ; preds = %4, %6
  %.0 = phi i1 [ %8, %6 ], [ true, %4 ]
  ret i1 %.0
}